target datalayout = "e-m:e-p270:32:32-p271:32:32-p272:64:64-i64:64-i128:128-f80:128-n8:16:32:64-S128"
target triple = "x86_64-pc-linux-gnu"

@H5D_init_g = external global i8, align 1
@H5_libterm_g = external global i8, align 1
@.str.1 = private unnamed_addr constant [104 x i8] c"generated/home/dtcxzyw/WorkSpace/Projects/compilers/llvm-opt-benchmark/bench/hdf5/hdf5/src/H5Dvirtual.c\00", align 1
@H5E_RESOURCE_g = external global i64, align 8
@H5E_CANTALLOC_g = external global i64, align 8
@.str.42 = private unnamed_addr constant [39 x i8] c"unable to allocate name segment struct\00", align 1
@__func__.H5D__virtual_str_append = private unnamed_addr constant [24 x i8] c"H5D__virtual_str_append\00", align 1
@.str.76 = private unnamed_addr constant [41 x i8] c"unable to reallocate name segment buffer\00", align 1

; Function Attrs: nounwind uwtable
define internal i32 @H5D__virtual_str_append(ptr noundef %0, i64 noundef %1, ptr noundef %2, ptr noundef %3, ptr noundef %4) #0 {
  %6 = alloca i32, align 4
  %7 = alloca ptr, align 8
  %8 = alloca i64, align 8
  %9 = alloca ptr, align 8
  %10 = alloca ptr, align 8
  %11 = alloca ptr, align 8
  %12 = alloca i32, align 4
  %13 = alloca i8, align 1
  %14 = alloca i64, align 8
  %15 = alloca ptr, align 8
  %16 = alloca i64, align 8
  %17 = alloca i32, align 4
  store ptr %0, ptr %7, align 8, !tbaa !132
  store i64 %1, ptr %8, align 8, !tbaa !10
  store ptr %2, ptr %9, align 8, !tbaa !173
  store ptr %3, ptr %10, align 8, !tbaa !173
  store ptr %4, ptr %11, align 8, !tbaa !133
  call void @llvm.lifetime.start.p0(i64 4, ptr %12) #10
  store i32 0, ptr %12, align 4, !tbaa !12
  call void @llvm.lifetime.start.p0(i64 1, ptr %13) #10
  store i8 0, ptr %13, align 1, !tbaa !14
  %18 = load i8, ptr @H5D_init_g, align 1, !tbaa !14, !range !16, !noundef !17
  %19 = trunc i8 %18 to i1
  br i1 %19, label %24, label %20

20:                                               ; preds = %5
  %21 = load i8, ptr @H5_libterm_g, align 1, !tbaa !14, !range !16, !noundef !17
  %22 = trunc i8 %21 to i1
  %23 = xor i1 %22, true
  br label %24

24:                                               ; preds = %20, %5
  %25 = phi i1 [ true, %5 ], [ %23, %20 ]
  %26 = xor i1 %25, true
  %27 = xor i1 %26, true
  %28 = zext i1 %27 to i32
  %29 = sext i32 %28 to i64
  %30 = call i64 @llvm.expect.i64(i64 %29, i64 1)
  %31 = icmp ne i64 %30, 0
  br i1 %31, label %32, label %156

32:                                               ; preds = %24
  %33 = load ptr, ptr %10, align 8, !tbaa !173
  %34 = load ptr, ptr %33, align 8, !tbaa !132
  %35 = icmp ne ptr %34, null
  br i1 %35, label %68, label %36

36:                                               ; preds = %32
  %37 = load i64, ptr %8, align 8, !tbaa !10
  %38 = add i64 %37, 1
  %39 = call noalias ptr @malloc(i64 noundef %38) #11
  %40 = load ptr, ptr %10, align 8, !tbaa !173
  store ptr %39, ptr %40, align 8, !tbaa !132
  %41 = icmp eq ptr null, %39
  br i1 %41, label %42, label %61

42:                                               ; preds = %36
  br label %43

43:                                               ; preds = %42
  br label %44

44:                                               ; preds = %43
  br label %45

45:                                               ; preds = %44
  %46 = load i64, ptr @H5E_RESOURCE_g, align 8, !tbaa !10
  %47 = load i64, ptr @H5E_CANTALLOC_g, align 8, !tbaa !10
  %48 = call i32 (ptr, ptr, i32, i64, i64, ptr, ...) @H5E_printf_stack(ptr noundef @.str.1, ptr noundef @__func__.H5D__virtual_str_append, i32 noundef 1048, i64 noundef %46, i64 noundef %47, ptr noundef @.str.42)
  br label %49

49:                                               ; preds = %45
  br label %50

50:                                               ; preds = %49
  store i8 1, ptr %13, align 1, !tbaa !14
  %51 = load i8, ptr %13, align 1, !tbaa !14, !range !16, !noundef !17
  %52 = trunc i8 %51 to i1
  %53 = zext i1 %52 to i8
  store i8 %53, ptr %13, align 1, !tbaa !14
  br label %54

54:                                               ; preds = %50
  br label %55

55:                                               ; preds = %54
  br label %56

56:                                               ; preds = %55
  store i32 -1, ptr %12, align 4, !tbaa !12
  br label %155

57:                                               ; No predecessors!
  br label %58

58:                                               ; preds = %57
  br label %59

59:                                               ; preds = %58
  br label %60

60:                                               ; preds = %59
  br label %61

61:                                               ; preds = %60, %36
  %62 = load i64, ptr %8, align 8, !tbaa !10
  %63 = add i64 %62, 1
  %64 = load ptr, ptr %11, align 8, !tbaa !133
  store i64 %63, ptr %64, align 8, !tbaa !10
  %65 = load ptr, ptr %10, align 8, !tbaa !173
  %66 = load ptr, ptr %65, align 8, !tbaa !132
  %67 = load ptr, ptr %9, align 8, !tbaa !173
  store ptr %66, ptr %67, align 8, !tbaa !132
  br label %144

68:                                               ; preds = %32
  call void @llvm.lifetime.start.p0(i64 8, ptr %14) #10
  %69 = load ptr, ptr %9, align 8, !tbaa !173
  %70 = load ptr, ptr %69, align 8, !tbaa !132
  %71 = load ptr, ptr %10, align 8, !tbaa !173
  %72 = load ptr, ptr %71, align 8, !tbaa !132
  %73 = ptrtoint ptr %70 to i64
  %74 = ptrtoint ptr %72 to i64
  %75 = sub i64 %73, %74
  store i64 %75, ptr %14, align 8, !tbaa !10
  %76 = load i64, ptr %14, align 8, !tbaa !10
  %77 = load i64, ptr %8, align 8, !tbaa !10
  %78 = add i64 %76, %77
  %79 = add i64 %78, 1
  %80 = load ptr, ptr %11, align 8, !tbaa !133
  %81 = load i64, ptr %80, align 8, !tbaa !10
  %82 = icmp ugt i64 %79, %81
  br i1 %82, label %83, label %140

83:                                               ; preds = %68
  call void @llvm.lifetime.start.p0(i64 8, ptr %15) #10
  call void @llvm.lifetime.start.p0(i64 8, ptr %16) #10
  %84 = load i64, ptr %14, align 8, !tbaa !10
  %85 = load i64, ptr %8, align 8, !tbaa !10
  %86 = add i64 %84, %85
  %87 = add i64 %86, 1
  %88 = load ptr, ptr %11, align 8, !tbaa !133
  %89 = load i64, ptr %88, align 8, !tbaa !10
  %90 = mul i64 %89, 2
  %91 = icmp ugt i64 %87, %90
  br i1 %91, label %92, label %97

92:                                               ; preds = %83
  %93 = load i64, ptr %14, align 8, !tbaa !10
  %94 = load i64, ptr %8, align 8, !tbaa !10
  %95 = add i64 %93, %94
  %96 = add i64 %95, 1
  br label %101

97:                                               ; preds = %83
  %98 = load ptr, ptr %11, align 8, !tbaa !133
  %99 = load i64, ptr %98, align 8, !tbaa !10
  %100 = mul i64 %99, 2
  br label %101

101:                                              ; preds = %97, %92
  %102 = phi i64 [ %96, %92 ], [ %100, %97 ]
  store i64 %102, ptr %16, align 8, !tbaa !10
  %103 = load ptr, ptr %10, align 8, !tbaa !173
  %104 = load ptr, ptr %103, align 8, !tbaa !132
  %105 = load i64, ptr %16, align 8, !tbaa !10
  %106 = call ptr @H5MM_realloc(ptr noundef %104, i64 noundef %105)
  store ptr %106, ptr %15, align 8, !tbaa !132
  %107 = icmp eq ptr null, %106
  br i1 %107, label %108, label %127

108:                                              ; preds = %101
  br label %109

109:                                              ; preds = %108
  br label %110

110:                                              ; preds = %109
  br label %111

111:                                              ; preds = %110
  %112 = load i64, ptr @H5E_RESOURCE_g, align 8, !tbaa !10
  %113 = load i64, ptr @H5E_CANTALLOC_g, align 8, !tbaa !10
  %114 = call i32 (ptr, ptr, i32, i64, i64, ptr, ...) @H5E_printf_stack(ptr noundef @.str.1, ptr noundef @__func__.H5D__virtual_str_append, i32 noundef 1065, i64 noundef %112, i64 noundef %113, ptr noundef @.str.76)
  br label %115

115:                                              ; preds = %111
  br label %116

116:                                              ; preds = %115
  store i8 1, ptr %13, align 1, !tbaa !14
  %117 = load i8, ptr %13, align 1, !tbaa !14, !range !16, !noundef !17
  %118 = trunc i8 %117 to i1
  %119 = zext i1 %118 to i8
  store i8 %119, ptr %13, align 1, !tbaa !14
  br label %120

120:                                              ; preds = %116
  br label %121

121:                                              ; preds = %120
  br label %122

122:                                              ; preds = %121
  store i32 -1, ptr %12, align 4, !tbaa !12
  store i32 10, ptr %17, align 4
  br label %137

123:                                              ; No predecessors!
  br label %124

124:                                              ; preds = %123
  br label %125

125:                                              ; preds = %124
  br label %126

126:                                              ; preds = %125
  br label %127

127:                                              ; preds = %126, %101
  %128 = load ptr, ptr %15, align 8, !tbaa !132
  %129 = load ptr, ptr %10, align 8, !tbaa !173
  store ptr %128, ptr %129, align 8, !tbaa !132
  %130 = load i64, ptr %16, align 8, !tbaa !10
  %131 = load ptr, ptr %11, align 8, !tbaa !133
  store i64 %130, ptr %131, align 8, !tbaa !10
  %132 = load ptr, ptr %10, align 8, !tbaa !173
  %133 = load ptr, ptr %132, align 8, !tbaa !132
  %134 = load i64, ptr %14, align 8, !tbaa !10
  %135 = getelementptr inbounds nuw i8, ptr %133, i64 %134
  %136 = load ptr, ptr %9, align 8, !tbaa !173
  store ptr %135, ptr %136, align 8, !tbaa !132
  store i32 0, ptr %17, align 4
  br label %137

137:                                              ; preds = %122, %127
  call void @llvm.lifetime.end.p0(i64 8, ptr %16) #10
  call void @llvm.lifetime.end.p0(i64 8, ptr %15) #10
  %138 = load i32, ptr %17, align 4
  switch i32 %138, label %141 [
    i32 0, label %139
  ]

139:                                              ; preds = %137
  br label %140

140:                                              ; preds = %139, %68
  store i32 0, ptr %17, align 4
  br label %141

141:                                              ; preds = %140, %137
  call void @llvm.lifetime.end.p0(i64 8, ptr %14) #10
  %142 = load i32, ptr %17, align 4
  switch i32 %142, label %158 [
    i32 0, label %143
    i32 10, label %155
  ]

143:                                              ; preds = %141
  br label %144

144:                                              ; preds = %143, %61
  %145 = load ptr, ptr %9, align 8, !tbaa !173
  %146 = load ptr, ptr %145, align 8, !tbaa !132
  %147 = load ptr, ptr %7, align 8, !tbaa !132
  %148 = load i64, ptr %8, align 8, !tbaa !10
  call void @llvm.memcpy.p0.p0.i64(ptr align 1 %146, ptr align 1 %147, i64 %148, i1 false)
  %149 = load i64, ptr %8, align 8, !tbaa !10
  %150 = load ptr, ptr %9, align 8, !tbaa !173
  %151 = load ptr, ptr %150, align 8, !tbaa !132
  %152 = getelementptr inbounds nuw i8, ptr %151, i64 %149
  store ptr %152, ptr %150, align 8, !tbaa !132
  %153 = load ptr, ptr %9, align 8, !tbaa !173
  %154 = load ptr, ptr %153, align 8, !tbaa !132
  store i8 0, ptr %154, align 1, !tbaa !120
  br label %155

155:                                              ; preds = %144, %141, %56
  br label %156

156:                                              ; preds = %155, %24
  %157 = load i32, ptr %12, align 4, !tbaa !12
  store i32 %157, ptr %6, align 4
  store i32 1, ptr %17, align 4
  br label %158

158:                                              ; preds = %156, %141
  call void @llvm.lifetime.end.p0(i64 1, ptr %13) #10
  call void @llvm.lifetime.end.p0(i64 4, ptr %12) #10
  %159 = load i32, ptr %6, align 4
  ret i32 %159
}