; Function Attrs: nounwind uwtable
define internal fastcc range(i32 -1, 1) i32 @H5D__virtual_str_append(ptr noundef readonly captures(none) %0, i64 noundef %1, ptr noundef nonnull captures(none) %2, ptr noundef captures(none) %3, ptr noundef nonnull captures(none) %4) unnamed_addr #0 {
  %6 = load i8, ptr @H5D_init_g, align 1, !tbaa !3, !range !7, !noundef !8
  %7 = trunc nuw i8 %6 to i1
  %8 = load i8, ptr @H5_libterm_g, align 1, !range !7
  %9 = trunc nuw i8 %8 to i1
  %10 = xor i1 %9, true
  %11 = select i1 %7, i1 true, i1 %10
  br i1 %11, label %12, label %43, !prof !9

12:                                               ; preds = %5
  %13 = load ptr, ptr %3, align 8, !tbaa !121
  %.not = icmp eq ptr %13, null
  br i1 %.not, label %14, label %23

14:                                               ; preds = %12
  %15 = add i64 %1, 1
  %16 = tail call noalias ptr @malloc(i64 noundef %15) #15
  store ptr %16, ptr %3, align 8, !tbaa !121
  %17 = icmp eq ptr %16, null
  br i1 %17, label %18, label %22

18:                                               ; preds = %14
  %19 = load i64, ptr @H5E_RESOURCE_g, align 8, !tbaa !24
  %20 = load i64, ptr @H5E_CANTALLOC_g, align 8, !tbaa !24
  %21 = tail call i32 (ptr, ptr, i32, i64, i64, ptr, ...) @H5E_printf_stack(ptr noundef nonnull @.str.1, ptr noundef nonnull @__func__.H5D__virtual_str_append, i32 noundef 1048, i64 noundef %19, i64 noundef %20, ptr noundef nonnull @.str.42) #14
  br label %43

22:                                               ; preds = %14
  store i64 %15, ptr %4, align 8, !tbaa !24
  br label %.thread.sink.split

23:                                               ; preds = %12
  %24 = load ptr, ptr %2, align 8, !tbaa !121
  %25 = ptrtoint ptr %24 to i64
  %26 = ptrtoint ptr %13 to i64
  %27 = sub i64 %25, %26
  %28 = add i64 %1, 1
  %29 = add i64 %28, %27
  %30 = load i64, ptr %4, align 8, !tbaa !24
  %31 = icmp ugt i64 %29, %30
  br i1 %31, label %32, label %.thread

32:                                               ; preds = %23
  %33 = shl i64 %30, 1
  %. = tail call i64 @llvm.umax.i64(i64 %29, i64 %33)
  %34 = tail call ptr @H5MM_realloc(ptr noundef nonnull %13, i64 noundef %.) #14
  %.not46 = icmp eq ptr %34, null
  br i1 %.not46, label %.thread55, label %35

35:                                               ; preds = %32
  store ptr %34, ptr %3, align 8, !tbaa !121
  store i64 %., ptr %4, align 8, !tbaa !24
  %36 = getelementptr inbounds nuw i8, ptr %34, i64 %27
  br label %.thread.sink.split

.thread55:                                        ; preds = %32
  %37 = load i64, ptr @H5E_RESOURCE_g, align 8, !tbaa !24
  %38 = load i64, ptr @H5E_CANTALLOC_g, align 8, !tbaa !24
  %39 = tail call i32 (ptr, ptr, i32, i64, i64, ptr, ...) @H5E_printf_stack(ptr noundef nonnull @.str.1, ptr noundef nonnull @__func__.H5D__virtual_str_append, i32 noundef 1065, i64 noundef %37, i64 noundef %38, ptr noundef nonnull @.str.76) #14
  br label %43

.thread.sink.split:                               ; preds = %22, %35
  %.sink = phi ptr [ %36, %35 ], [ %16, %22 ]
  store ptr %.sink, ptr %2, align 8, !tbaa !121
  br label %.thread

.thread:                                          ; preds = %.thread.sink.split, %23
  %40 = phi ptr [ %24, %23 ], [ %.sink, %.thread.sink.split ]
  tail call void @llvm.memcpy.p0.p0.i64(ptr align 1 %40, ptr align 1 %0, i64 %1, i1 false)
  %41 = load ptr, ptr %2, align 8, !tbaa !121
  %42 = getelementptr inbounds nuw i8, ptr %41, i64 %1
  store ptr %42, ptr %2, align 8, !tbaa !121
  store i8 0, ptr %42, align 1, !tbaa !108
  br label %43

43:                                               ; preds = %.thread55, %5, %.thread, %18
  %.038 = phi i32 [ 0, %.thread ], [ -1, %18 ], [ 0, %5 ], [ -1, %.thread55 ]
  ret i32 %.038
}